target datalayout = "e-m:e-p270:32:32-p271:32:32-p272:64:64-i64:64-i128:128-f80:128-n8:16:32:64-S128"
target triple = "x86_64-pc-linux-gnu"

%struct.ForeignScan = type { %struct.Scan, i32, i32, i32, i32, ptr, ptr, ptr, ptr, ptr, ptr, i8 }
%struct.Scan = type { %struct.Plan, i32 }
%struct.Plan = type { i32, i32, double, double, double, i32, i8, i8, i8, i32, ptr, ptr, ptr, ptr, ptr, ptr, ptr }
%struct.ForeignScanState = type { %struct.ScanState, ptr, i64, ptr, ptr, ptr }
%struct.ScanState = type { %struct.PlanState, ptr, ptr, ptr }
%struct.PlanState = type { i32, ptr, ptr, ptr, ptr, ptr, ptr, ptr, ptr, ptr, ptr, ptr, ptr, ptr, ptr, ptr, ptr, ptr, i8, ptr, ptr, ptr, ptr, ptr, i8, i8, i8, i8, i8, i8, i8, i8 }
%struct.EState = type { i32, i32, ptr, ptr, ptr, i32, ptr, ptr, ptr, ptr, ptr, ptr, ptr, ptr, ptr, ptr, i32, ptr, ptr, ptr, ptr, ptr, ptr, ptr, ptr, ptr, ptr, i64, i64, i32, i32, i8, ptr, ptr, ptr, ptr, ptr, i8, i32, i32, ptr, i32, ptr, ptr, ptr, ptr }
%struct.FdwRoutine = type { i32, ptr, ptr, ptr, ptr, ptr, ptr, ptr, ptr, ptr, ptr, ptr, ptr, ptr, ptr, ptr, ptr, ptr, ptr, ptr, ptr, ptr, ptr, ptr, ptr, ptr, ptr, ptr, ptr, ptr, ptr, ptr, ptr, ptr, ptr, ptr, ptr, ptr, ptr, ptr, ptr, ptr, ptr, ptr, ptr, ptr }

; Function Attrs: nounwind uwtable
define dso_local void @ExecReScanForeignScan(ptr noundef %0) #0 {
  %2 = alloca ptr, align 8
  %3 = alloca ptr, align 8
  %4 = alloca ptr, align 8
  %5 = alloca ptr, align 8
  %6 = alloca i32, align 4
  store ptr %0, ptr %2, align 8
  call void @llvm.lifetime.start.p0(i64 8, ptr %3) #5
  %7 = load ptr, ptr %2, align 8
  %8 = getelementptr inbounds nuw %struct.ForeignScanState, ptr %7, i32 0, i32 0
  %9 = getelementptr inbounds nuw %struct.ScanState, ptr %8, i32 0, i32 0
  %10 = getelementptr inbounds nuw %struct.PlanState, ptr %9, i32 0, i32 1
  %11 = load ptr, ptr %10, align 8
  store ptr %11, ptr %3, align 8
  call void @llvm.lifetime.start.p0(i64 8, ptr %4) #5
  %12 = load ptr, ptr %2, align 8
  %13 = getelementptr inbounds nuw %struct.ForeignScanState, ptr %12, i32 0, i32 0
  %14 = getelementptr inbounds nuw %struct.ScanState, ptr %13, i32 0, i32 0
  %15 = getelementptr inbounds nuw %struct.PlanState, ptr %14, i32 0, i32 2
  %16 = load ptr, ptr %15, align 8
  store ptr %16, ptr %4, align 8
  call void @llvm.lifetime.start.p0(i64 8, ptr %5) #5
  %17 = load ptr, ptr %2, align 8
  %18 = getelementptr inbounds nuw %struct.PlanState, ptr %17, i32 0, i32 9
  %19 = load ptr, ptr %18, align 8
  store ptr %19, ptr %5, align 8
  %20 = load ptr, ptr %4, align 8
  %21 = getelementptr inbounds nuw %struct.EState, ptr %20, i32 0, i32 36
  %22 = load ptr, ptr %21, align 8
  %23 = icmp ne ptr %22, null
  br i1 %23, label %24, label %30

24:                                               ; preds = %1
  %25 = load ptr, ptr %3, align 8
  %26 = getelementptr inbounds nuw %struct.ForeignScan, ptr %25, i32 0, i32 1
  %27 = load i32, ptr %26, align 8
  %28 = icmp ne i32 %27, 1
  br i1 %28, label %29, label %30

29:                                               ; preds = %24
  store i32 1, ptr %6, align 4
  br label %49

30:                                               ; preds = %24, %1
  %31 = load ptr, ptr %2, align 8
  %32 = getelementptr inbounds nuw %struct.ForeignScanState, ptr %31, i32 0, i32 4
  %33 = load ptr, ptr %32, align 8
  %34 = getelementptr inbounds nuw %struct.FdwRoutine, ptr %33, i32 0, i32 6
  %35 = load ptr, ptr %34, align 8
  %36 = load ptr, ptr %2, align 8
  call void %35(ptr noundef %36)
  %37 = load ptr, ptr %5, align 8
  %38 = icmp ne ptr %37, null
  br i1 %38, label %39, label %46

39:                                               ; preds = %30
  %40 = load ptr, ptr %5, align 8
  %41 = getelementptr inbounds nuw %struct.PlanState, ptr %40, i32 0, i32 13
  %42 = load ptr, ptr %41, align 8
  %43 = icmp eq ptr %42, null
  br i1 %43, label %44, label %46

44:                                               ; preds = %39
  %45 = load ptr, ptr %5, align 8
  call void @ExecReScan(ptr noundef %45)
  br label %46

46:                                               ; preds = %44, %39, %30
  %47 = load ptr, ptr %2, align 8
  %48 = getelementptr inbounds nuw %struct.ForeignScanState, ptr %47, i32 0, i32 0
  call void @ExecScanReScan(ptr noundef %48)
  store i32 0, ptr %6, align 4
  br label %49

49:                                               ; preds = %46, %29
  call void @llvm.lifetime.end.p0(i64 8, ptr %5) #5
  call void @llvm.lifetime.end.p0(i64 8, ptr %4) #5
  call void @llvm.lifetime.end.p0(i64 8, ptr %3) #5
  %50 = load i32, ptr %6, align 4
  switch i32 %50, label %52 [
    i32 0, label %51
    i32 1, label %51
  ]

51:                                               ; preds = %49, %49
  ret void

52:                                               ; preds = %49
  unreachable
}