; Function Attrs: nounwind uwtable
define dso_local void @ExecReScanForeignScan(ptr noundef %0) local_unnamed_addr #0 {
  %2 = getelementptr inbounds nuw i8, ptr %0, i64 16
  %3 = load ptr, ptr %2, align 8
  %4 = getelementptr inbounds nuw i8, ptr %0, i64 72
  %5 = load ptr, ptr %4, align 8
  %6 = getelementptr inbounds nuw i8, ptr %3, i64 272
  %7 = load ptr, ptr %6, align 8
  %.not = icmp eq ptr %7, null
  br i1 %.not, label %13, label %8

8:                                                ; preds = %1
  %9 = getelementptr inbounds nuw i8, ptr %0, i64 8
  %10 = load ptr, ptr %9, align 8
  %11 = getelementptr inbounds nuw i8, ptr %10, i64 112
  %12 = load i32, ptr %11, align 8
  %.not11 = icmp eq i32 %12, 1
  br i1 %.not11, label %13, label %24

13:                                               ; preds = %8, %1
  %14 = getelementptr inbounds nuw i8, ptr %0, i64 248
  %15 = load ptr, ptr %14, align 8
  %16 = getelementptr inbounds nuw i8, ptr %15, i64 48
  %17 = load ptr, ptr %16, align 8
  tail call void %17(ptr noundef nonnull %0) #5
  %.not12 = icmp eq ptr %5, null
  br i1 %.not12, label %23, label %18

18:                                               ; preds = %13
  %19 = getelementptr inbounds nuw i8, ptr %5, i64 104
  %20 = load ptr, ptr %19, align 8
  %21 = icmp eq ptr %20, null
  br i1 %21, label %22, label %23

22:                                               ; preds = %18
  tail call void @ExecReScan(ptr noundef nonnull %5) #5
  br label %23

23:                                               ; preds = %22, %18, %13
  tail call void @ExecScanReScan(ptr noundef nonnull %0) #5
  br label %24

24:                                               ; preds = %8, %23
  ret void
}